; Function Attrs: mustprogress nofree norecurse nosync nounwind willreturn memory(read, argmem: readwrite, inaccessiblemem: none) uwtable
define internal fastcc noundef zeroext i1 @_ZN14arrow_vendored17double_conversionL7AdvanceIPKcEEbPT_tiRS4_(ptr noundef nonnull captures(none) %0, i16 noundef zeroext %1, i32 noundef range(i32 10, 17) %2, ptr readnone captures(address) %.0.val) unnamed_addr #2 {
  %4 = zext i16 %1 to i32
  %5 = icmp eq i16 %1, 0
  %6 = load ptr, ptr %0, align 8, !tbaa !3
  br i1 %5, label %7, label %10

7:                                                ; preds = %3
  %8 = getelementptr inbounds nuw i8, ptr %6, i64 1
  store ptr %8, ptr %0, align 8, !tbaa !3
  %9 = icmp eq ptr %8, %.0.val
  br label %_ZN14arrow_vendored17double_conversionL7isDigitEii.exit30.thread2

10:                                               ; preds = %3
  %11 = load i8, ptr %6, align 1, !tbaa !15
  %12 = sext i8 %11 to i32
  %13 = add nsw i32 %12, -48
  %or.cond.i = icmp ult i32 %13, 10
  %14 = add nuw nsw i32 %2, 48
  %15 = icmp samesign ugt i32 %14, %12
  %or.cond19.i = select i1 %or.cond.i, i1 %15, i1 false
  br i1 %or.cond19.i, label %_ZN14arrow_vendored17double_conversionL7isDigitEii.exit.thread, label %16

16:                                               ; preds = %10
  %17 = icmp samesign ugt i32 %2, 10
  %18 = icmp sgt i8 %11, 96
  %or.cond3.i = and i1 %17, %18
  %19 = add nuw nsw i32 %2, 87
  %20 = icmp samesign ugt i32 %19, %12
  %or.cond21.i = select i1 %or.cond3.i, i1 %20, i1 false
  br i1 %or.cond21.i, label %_ZN14arrow_vendored17double_conversionL7isDigitEii.exit.thread, label %21

21:                                               ; preds = %16
  %22 = icmp sgt i8 %11, 64
  %or.cond5.i = and i1 %17, %22
  %23 = add nuw nsw i32 %2, 55
  %24 = icmp samesign ugt i32 %23, %12
  %or.cond = select i1 %or.cond5.i, i1 %24, i1 false
  br i1 %or.cond, label %_ZN14arrow_vendored17double_conversionL7isDigitEii.exit.thread, label %_ZN14arrow_vendored17double_conversionL7isDigitEii.exit.thread1

_ZN14arrow_vendored17double_conversionL7isDigitEii.exit.thread1: ; preds = %21
  %25 = getelementptr inbounds nuw i8, ptr %6, i64 1
  store ptr %25, ptr %0, align 8, !tbaa !3
  %26 = icmp eq ptr %25, %.0.val
  br label %_ZN14arrow_vendored17double_conversionL7isDigitEii.exit30.thread2

_ZN14arrow_vendored17double_conversionL7isDigitEii.exit.thread: ; preds = %21, %16, %10
  %27 = getelementptr inbounds nuw i8, ptr %6, i64 1
  store ptr %27, ptr %0, align 8, !tbaa !3
  %28 = icmp eq ptr %27, %.0.val
  br i1 %28, label %_ZN14arrow_vendored17double_conversionL7isDigitEii.exit30.thread2, label %29

29:                                               ; preds = %_ZN14arrow_vendored17double_conversionL7isDigitEii.exit.thread
  %30 = getelementptr inbounds nuw i8, ptr %6, i64 2
  %31 = icmp eq ptr %30, %.0.val
  br i1 %31, label %_ZN14arrow_vendored17double_conversionL7isDigitEii.exit30.thread2, label %32

32:                                               ; preds = %29
  %33 = load i8, ptr %27, align 1, !tbaa !15
  %34 = sext i8 %33 to i32
  %35 = icmp eq i32 %34, %4
  br i1 %35, label %36, label %_ZN14arrow_vendored17double_conversionL7isDigitEii.exit30.thread2

36:                                               ; preds = %32
  %37 = load i8, ptr %30, align 1, !tbaa !15
  %38 = sext i8 %37 to i32
  %39 = add nsw i32 %38, -48
  %or.cond.i25 = icmp ult i32 %39, 10
  %40 = icmp samesign ugt i32 %14, %38
  %or.cond19.i26 = select i1 %or.cond.i25, i1 %40, i1 false
  br i1 %or.cond19.i26, label %_ZN14arrow_vendored17double_conversionL7isDigitEii.exit30.thread, label %41

41:                                               ; preds = %36
  %42 = icmp samesign ugt i32 %2, 10
  %43 = icmp sgt i8 %37, 96
  %or.cond3.i27 = and i1 %42, %43
  %44 = add nuw nsw i32 %2, 87
  %45 = icmp samesign ugt i32 %44, %38
  %or.cond21.i28 = select i1 %or.cond3.i27, i1 %45, i1 false
  br i1 %or.cond21.i28, label %_ZN14arrow_vendored17double_conversionL7isDigitEii.exit30.thread, label %46

46:                                               ; preds = %41
  %47 = icmp sgt i8 %37, 64
  %or.cond5.i29 = and i1 %42, %47
  %48 = add nuw nsw i32 %2, 55
  %49 = icmp samesign ugt i32 %48, %38
  %or.cond5 = select i1 %or.cond5.i29, i1 %49, i1 false
  br i1 %or.cond5, label %_ZN14arrow_vendored17double_conversionL7isDigitEii.exit30.thread, label %_ZN14arrow_vendored17double_conversionL7isDigitEii.exit30.thread2

_ZN14arrow_vendored17double_conversionL7isDigitEii.exit30.thread: ; preds = %46, %41, %36
  store ptr %30, ptr %0, align 8, !tbaa !3
  br label %_ZN14arrow_vendored17double_conversionL7isDigitEii.exit30.thread2

_ZN14arrow_vendored17double_conversionL7isDigitEii.exit30.thread2: ; preds = %32, %_ZN14arrow_vendored17double_conversionL7isDigitEii.exit30.thread, %46, %29, %_ZN14arrow_vendored17double_conversionL7isDigitEii.exit.thread, %_ZN14arrow_vendored17double_conversionL7isDigitEii.exit.thread1, %7
  %.0 = phi i1 [ %9, %7 ], [ %26, %_ZN14arrow_vendored17double_conversionL7isDigitEii.exit.thread1 ], [ true, %_ZN14arrow_vendored17double_conversionL7isDigitEii.exit.thread ], [ false, %29 ], [ false, %46 ], [ false, %_ZN14arrow_vendored17double_conversionL7isDigitEii.exit30.thread ], [ false, %32 ]
  ret i1 %.0
}